target datalayout = "e-m:e-p270:32:32-p271:32:32-p272:64:64-i64:64-i128:128-f80:128-n8:16:32:64-S128"
target triple = "x86_64-pc-linux-gnu"

%struct.DdManager = type { %struct.DdNode, ptr, ptr, ptr, ptr, ptr, ptr, ptr, i32, i32, double, double, double, i32, i32, i32, i32, i32, i32, ptr, ptr, %struct.DdSubtable, i32, i32, i32, i32, i32, i32, i32, double, i32, i32, i32, ptr, i64, double, i32, ptr, ptr, ptr, ptr, ptr, ptr, ptr, i32, ptr, ptr, ptr, ptr, ptr, ptr, i32, i32, i32, double, i32, i32, i32, i32, double, double, i32, i32, i32, i32, i32, i32, i32, i32, i32, ptr, ptr, i32, i32, i32, i32, i32, i32, ptr, ptr, ptr, ptr, ptr, ptr, ptr, ptr, i32, i64, i64, i64, i32, i64, i64, double, double, double, double, double, double, i32, ptr, ptr, i64 }
%struct.DdNode = type { i32, i32, ptr, %union.anon, i64 }
%union.anon = type { %struct.DdChildren }
%struct.DdChildren = type { ptr, ptr }
%struct.DdSubtable = type { ptr, i32, i32, i32, i32, i32, i32, i32, i32, i32, i32, i32 }

@GetSingleOutputFunctionRemapped.Permute = internal global [1024 x i32] zeroinitializer, align 16
@GetSingleOutputFunctionRemapped.pRemapped = internal global [1024 x ptr] zeroinitializer, align 16

; Function Attrs: nounwind uwtable
define ptr @GetSingleOutputFunctionRemapped(ptr noundef %0, ptr noundef %1, i32 noundef %2, ptr noundef %3, i32 noundef %4) #0 {
  %6 = alloca ptr, align 8
  %7 = alloca ptr, align 8
  %8 = alloca i32, align 4
  %9 = alloca ptr, align 8
  %10 = alloca i32, align 4
  %11 = alloca ptr, align 8
  %12 = alloca ptr, align 8
  %13 = alloca i32, align 4
  %14 = alloca i32, align 4
  %15 = alloca ptr, align 8
  %16 = alloca ptr, align 8
  store ptr %0, ptr %6, align 8, !tbaa !8
  store ptr %1, ptr %7, align 8, !tbaa !10
  store i32 %2, ptr %8, align 4, !tbaa !12
  store ptr %3, ptr %9, align 8, !tbaa !10
  store i32 %4, ptr %10, align 4, !tbaa !12
  call void @llvm.lifetime.start.p0(i64 8, ptr %11) #5
  call void @llvm.lifetime.start.p0(i64 8, ptr %12) #5
  call void @llvm.lifetime.start.p0(i64 4, ptr %13) #5
  call void @llvm.lifetime.start.p0(i64 4, ptr %14) #5
  call void @llvm.lifetime.start.p0(i64 8, ptr %15) #5
  call void @llvm.lifetime.start.p0(i64 8, ptr %16) #5
  %17 = load ptr, ptr %6, align 8, !tbaa !8
  call void @Cudd_AutodynDisable(ptr noundef %17)
  store i32 0, ptr %13, align 4, !tbaa !12
  br label %18

18:                                               ; preds = %68, %5
  %19 = load i32, ptr %13, align 4, !tbaa !12
  %20 = load i32, ptr %8, align 4, !tbaa !12
  %21 = icmp slt i32 %19, %20
  br i1 %21, label %22, label %71

22:                                               ; preds = %18
  %23 = load ptr, ptr %6, align 8, !tbaa !8
  %24 = load ptr, ptr %7, align 8, !tbaa !10
  %25 = load i32, ptr %13, align 4, !tbaa !12
  %26 = sext i32 %25 to i64
  %27 = getelementptr inbounds ptr, ptr %24, i64 %26
  %28 = load ptr, ptr %27, align 8, !tbaa !14
  %29 = call ptr @Cudd_Support(ptr noundef %23, ptr noundef %28)
  store ptr %29, ptr %11, align 8, !tbaa !14
  %30 = load ptr, ptr %11, align 8, !tbaa !14
  call void @Cudd_Ref(ptr noundef %30)
  store i32 0, ptr %14, align 4, !tbaa !12
  %31 = load ptr, ptr %11, align 8, !tbaa !14
  store ptr %31, ptr %12, align 8, !tbaa !14
  br label %32

32:                                               ; preds = %46, %22
  %33 = load ptr, ptr %12, align 8, !tbaa !14
  %34 = load ptr, ptr %6, align 8, !tbaa !8
  %35 = getelementptr inbounds nuw %struct.DdManager, ptr %34, i32 0, i32 1
  %36 = load ptr, ptr %35, align 8, !tbaa !25
  %37 = icmp ne ptr %33, %36
  br i1 %37, label %38, label %51

38:                                               ; preds = %32
  %39 = load i32, ptr %14, align 4, !tbaa !12
  %40 = add nsw i32 %39, 1
  store i32 %40, ptr %14, align 4, !tbaa !12
  %41 = load ptr, ptr %12, align 8, !tbaa !14
  %42 = getelementptr inbounds nuw %struct.DdNode, ptr %41, i32 0, i32 0
  %43 = load i32, ptr %42, align 8, !tbaa !44
  %44 = zext i32 %43 to i64
  %45 = getelementptr inbounds nuw [1024 x i32], ptr @GetSingleOutputFunctionRemapped.Permute, i64 0, i64 %44
  store i32 %39, ptr %45, align 4, !tbaa !12
  br label %46

46:                                               ; preds = %38
  %47 = load ptr, ptr %12, align 8, !tbaa !14
  %48 = getelementptr inbounds nuw %struct.DdNode, ptr %47, i32 0, i32 3
  %49 = getelementptr inbounds nuw %struct.DdChildren, ptr %48, i32 0, i32 0
  %50 = load ptr, ptr %49, align 8, !tbaa !45
  store ptr %50, ptr %12, align 8, !tbaa !14
  br label %32, !llvm.loop !46

51:                                               ; preds = %32
  %52 = load ptr, ptr %6, align 8, !tbaa !8
  %53 = load ptr, ptr %7, align 8, !tbaa !10
  %54 = load i32, ptr %13, align 4, !tbaa !12
  %55 = sext i32 %54 to i64
  %56 = getelementptr inbounds ptr, ptr %53, i64 %55
  %57 = load ptr, ptr %56, align 8, !tbaa !14
  %58 = call ptr @Cudd_bddPermute(ptr noundef %52, ptr noundef %57, ptr noundef @GetSingleOutputFunctionRemapped.Permute)
  %59 = load i32, ptr %13, align 4, !tbaa !12
  %60 = sext i32 %59 to i64
  %61 = getelementptr inbounds [1024 x ptr], ptr @GetSingleOutputFunctionRemapped.pRemapped, i64 0, i64 %60
  store ptr %58, ptr %61, align 8, !tbaa !14
  %62 = load i32, ptr %13, align 4, !tbaa !12
  %63 = sext i32 %62 to i64
  %64 = getelementptr inbounds [1024 x ptr], ptr @GetSingleOutputFunctionRemapped.pRemapped, i64 0, i64 %63
  %65 = load ptr, ptr %64, align 8, !tbaa !14
  call void @Cudd_Ref(ptr noundef %65)
  %66 = load ptr, ptr %6, align 8, !tbaa !8
  %67 = load ptr, ptr %11, align 8, !tbaa !14
  call void @Cudd_RecursiveDeref(ptr noundef %66, ptr noundef %67)
  br label %68

68:                                               ; preds = %51
  %69 = load i32, ptr %13, align 4, !tbaa !12
  %70 = add nsw i32 %69, 1
  store i32 %70, ptr %13, align 4, !tbaa !12
  br label %18, !llvm.loop !47

71:                                               ; preds = %18
  %72 = load ptr, ptr %6, align 8, !tbaa !8
  %73 = load i32, ptr %8, align 4, !tbaa !12
  %74 = load ptr, ptr %9, align 8, !tbaa !10
  %75 = load i32, ptr %10, align 4, !tbaa !12
  %76 = call ptr @Extra_bddEncodingBinary(ptr noundef %72, ptr noundef @GetSingleOutputFunctionRemapped.pRemapped, i32 noundef %73, ptr noundef %74, i32 noundef %75)
  store ptr %76, ptr %15, align 8, !tbaa !14
  %77 = load ptr, ptr %15, align 8, !tbaa !14
  call void @Cudd_Ref(ptr noundef %77)
  %78 = load ptr, ptr %6, align 8, !tbaa !8
  %79 = load ptr, ptr %15, align 8, !tbaa !14
  %80 = call ptr @Cudd_BddToAdd(ptr noundef %78, ptr noundef %79)
  store ptr %80, ptr %16, align 8, !tbaa !14
  %81 = load ptr, ptr %16, align 8, !tbaa !14
  call void @Cudd_Ref(ptr noundef %81)
  %82 = load ptr, ptr %6, align 8, !tbaa !8
  %83 = load ptr, ptr %15, align 8, !tbaa !14
  call void @Cudd_RecursiveDeref(ptr noundef %82, ptr noundef %83)
  store i32 0, ptr %13, align 4, !tbaa !12
  br label %84

84:                                               ; preds = %94, %71
  %85 = load i32, ptr %13, align 4, !tbaa !12
  %86 = load i32, ptr %8, align 4, !tbaa !12
  %87 = icmp slt i32 %85, %86
  br i1 %87, label %88, label %97

88:                                               ; preds = %84
  %89 = load ptr, ptr %6, align 8, !tbaa !8
  %90 = load i32, ptr %13, align 4, !tbaa !12
  %91 = sext i32 %90 to i64
  %92 = getelementptr inbounds [1024 x ptr], ptr @GetSingleOutputFunctionRemapped.pRemapped, i64 0, i64 %91
  %93 = load ptr, ptr %92, align 8, !tbaa !14
  call void @Cudd_RecursiveDeref(ptr noundef %89, ptr noundef %93)
  br label %94

94:                                               ; preds = %88
  %95 = load i32, ptr %13, align 4, !tbaa !12
  %96 = add nsw i32 %95, 1
  store i32 %96, ptr %13, align 4, !tbaa !12
  br label %84, !llvm.loop !48

97:                                               ; preds = %84
  %98 = load ptr, ptr %16, align 8, !tbaa !14
  call void @Cudd_Deref(ptr noundef %98)
  %99 = load ptr, ptr %16, align 8, !tbaa !14
  call void @llvm.lifetime.end.p0(i64 8, ptr %16) #5
  call void @llvm.lifetime.end.p0(i64 8, ptr %15) #5
  call void @llvm.lifetime.end.p0(i64 4, ptr %14) #5
  call void @llvm.lifetime.end.p0(i64 4, ptr %13) #5
  call void @llvm.lifetime.end.p0(i64 8, ptr %12) #5
  call void @llvm.lifetime.end.p0(i64 8, ptr %11) #5
  ret ptr %99
}