; Function Attrs: nounwind uwtable
define noundef ptr @GetSingleOutputFunctionRemapped(ptr noundef %0, ptr noundef readonly captures(none) %1, i32 noundef %2, ptr noundef %3, i32 noundef %4) local_unnamed_addr #0 {
  tail call void @Cudd_AutodynDisable(ptr noundef %0) #14
  %6 = icmp sgt i32 %2, 0
  br i1 %6, label %.lr.ph45, label %._crit_edge46

.lr.ph45:                                         ; preds = %5
  %7 = getelementptr inbounds nuw i8, ptr %0, i64 40
  %wide.trip.count = zext nneg i32 %2 to i64
  br label %8

8:                                                ; preds = %.lr.ph45, %._crit_edge
  %indvars.iv = phi i64 [ 0, %.lr.ph45 ], [ %indvars.iv.next, %._crit_edge ]
  %9 = getelementptr inbounds nuw ptr, ptr %1, i64 %indvars.iv
  %10 = load ptr, ptr %9, align 8, !tbaa !3
  %11 = tail call ptr @Cudd_Support(ptr noundef %0, ptr noundef %10) #14
  tail call void @Cudd_Ref(ptr noundef %11) #14
  %12 = load ptr, ptr %7, align 8, !tbaa !22
  %.not40 = icmp eq ptr %11, %12
  br i1 %.not40, label %._crit_edge, label %.lr.ph

.lr.ph:                                           ; preds = %8, %.lr.ph
  %.042 = phi ptr [ %18, %.lr.ph ], [ %11, %8 ]
  %.03841 = phi i32 [ %13, %.lr.ph ], [ 0, %8 ]
  %13 = add nuw nsw i32 %.03841, 1
  %14 = load i32, ptr %.042, align 8, !tbaa !38
  %15 = zext i32 %14 to i64
  %16 = getelementptr inbounds nuw [1024 x i32], ptr @GetSingleOutputFunctionRemapped.Permute, i64 0, i64 %15
  store i32 %.03841, ptr %16, align 4, !tbaa !19
  %17 = getelementptr inbounds nuw i8, ptr %.042, i64 16
  %18 = load ptr, ptr %17, align 8, !tbaa !39
  %.not = icmp eq ptr %18, %12
  br i1 %.not, label %._crit_edge, label %.lr.ph, !llvm.loop !40

._crit_edge:                                      ; preds = %.lr.ph, %8
  %19 = load ptr, ptr %9, align 8, !tbaa !3
  %20 = tail call ptr @Cudd_bddPermute(ptr noundef nonnull %0, ptr noundef %19, ptr noundef nonnull @GetSingleOutputFunctionRemapped.Permute) #14
  %21 = getelementptr inbounds nuw [1024 x ptr], ptr @GetSingleOutputFunctionRemapped.pRemapped, i64 0, i64 %indvars.iv
  store ptr %20, ptr %21, align 8, !tbaa !3
  tail call void @Cudd_Ref(ptr noundef %20) #14
  tail call void @Cudd_RecursiveDeref(ptr noundef nonnull %0, ptr noundef %11) #14
  %indvars.iv.next = add nuw nsw i64 %indvars.iv, 1
  %exitcond.not = icmp eq i64 %indvars.iv.next, %wide.trip.count
  br i1 %exitcond.not, label %._crit_edge46, label %8, !llvm.loop !41

._crit_edge46:                                    ; preds = %._crit_edge, %5
  %22 = tail call ptr @Extra_bddEncodingBinary(ptr noundef %0, ptr noundef nonnull @GetSingleOutputFunctionRemapped.pRemapped, i32 noundef %2, ptr noundef %3, i32 noundef %4) #14
  tail call void @Cudd_Ref(ptr noundef %22) #14
  %23 = tail call ptr @Cudd_BddToAdd(ptr noundef %0, ptr noundef %22) #14
  tail call void @Cudd_Ref(ptr noundef %23) #14
  tail call void @Cudd_RecursiveDeref(ptr noundef %0, ptr noundef %22) #14
  br i1 %6, label %.lr.ph49.preheader, label %._crit_edge50

.lr.ph49.preheader:                               ; preds = %._crit_edge46
  %wide.trip.count55 = zext nneg i32 %2 to i64
  br label %.lr.ph49

.lr.ph49:                                         ; preds = %.lr.ph49.preheader, %.lr.ph49
  %indvars.iv52 = phi i64 [ 0, %.lr.ph49.preheader ], [ %indvars.iv.next53, %.lr.ph49 ]
  %24 = getelementptr inbounds nuw [1024 x ptr], ptr @GetSingleOutputFunctionRemapped.pRemapped, i64 0, i64 %indvars.iv52
  %25 = load ptr, ptr %24, align 8, !tbaa !3
  tail call void @Cudd_RecursiveDeref(ptr noundef %0, ptr noundef %25) #14
  %indvars.iv.next53 = add nuw nsw i64 %indvars.iv52, 1
  %exitcond56.not = icmp eq i64 %indvars.iv.next53, %wide.trip.count55
  br i1 %exitcond56.not, label %._crit_edge50, label %.lr.ph49, !llvm.loop !42

._crit_edge50:                                    ; preds = %.lr.ph49, %._crit_edge46
  tail call void @Cudd_Deref(ptr noundef %23) #14
  ret ptr %23
}